; Function Attrs: mustprogress nounwind uwtable
define internal fastcc noundef zeroext i1 @_ZN5clang19RecursiveASTVisitorINS_12_GLOBAL__N_17BuilderEE22VisitOMPAllocateClauseEPNS_17OMPAllocateClauseE(ptr noundef nonnull align 1 dereferenceable(1) %0, ptr noundef nonnull readonly %1) unnamed_addr #0 align 2 {
  %3 = getelementptr inbounds nuw i8, ptr %1, i64 24
  %4 = load ptr, ptr %3, align 8
  %5 = tail call fastcc noundef zeroext i1 @_ZN5clang19RecursiveASTVisitorINS_12_GLOBAL__N_17BuilderEE12TraverseStmtEPNS_4StmtEPN4llvm15SmallVectorImplINS6_14PointerIntPairIS5_Lj1EbNS6_21PointerLikeTypeTraitsIS5_EENS6_18PointerIntPairInfoIS5_Lj1ESA_EEEEEE(ptr noundef nonnull align 1 dereferenceable(1) %0, ptr noundef %4, ptr noundef null)
  br i1 %5, label %6, label %_ZN5clang19RecursiveASTVisitorINS_12_GLOBAL__N_17BuilderEE18VisitOMPClauseListINS_17OMPAllocateClauseEEEbPT_.exit

6:                                                ; preds = %2
  %7 = getelementptr inbounds nuw i8, ptr %1, i64 16
  %8 = load i32, ptr %7, align 4
  %9 = zext i32 %8 to i64
  %.idx = shl nuw nsw i64 %9, 3
  %10 = getelementptr inbounds nuw i8, ptr %1, i64 %.idx
  %.ptr8 = getelementptr inbounds nuw i8, ptr %10, i64 40
  %.not.i4 = icmp eq i32 %8, 0
  br i1 %.not.i4, label %_ZN5clang19RecursiveASTVisitorINS_12_GLOBAL__N_17BuilderEE18VisitOMPClauseListINS_17OMPAllocateClauseEEEbPT_.exit, label %.lr.ph.preheader

.lr.ph.preheader:                                 ; preds = %6
  %.ptr = getelementptr inbounds nuw i8, ptr %1, i64 40
  br label %.lr.ph

.lr.ph:                                           ; preds = %.lr.ph, %.lr.ph.preheader
  %.010.i5 = phi ptr [ %.ptr, %.lr.ph.preheader ], [ %13, %.lr.ph ]
  %11 = load ptr, ptr %.010.i5, align 8
  %12 = tail call fastcc noundef zeroext i1 @_ZN5clang19RecursiveASTVisitorINS_12_GLOBAL__N_17BuilderEE12TraverseStmtEPNS_4StmtEPN4llvm15SmallVectorImplINS6_14PointerIntPairIS5_Lj1EbNS6_21PointerLikeTypeTraitsIS5_EENS6_18PointerIntPairInfoIS5_Lj1ESA_EEEEEE(ptr noundef nonnull align 1 dereferenceable(1) %0, ptr noundef %11, ptr noundef null)
  %13 = getelementptr inbounds nuw i8, ptr %.010.i5, i64 8
  %.not.i = icmp ne ptr %13, %.ptr8
  %or.cond.not = select i1 %12, i1 %.not.i, i1 false
  br i1 %or.cond.not, label %.lr.ph, label %_ZN5clang19RecursiveASTVisitorINS_12_GLOBAL__N_17BuilderEE18VisitOMPClauseListINS_17OMPAllocateClauseEEEbPT_.exit

_ZN5clang19RecursiveASTVisitorINS_12_GLOBAL__N_17BuilderEE18VisitOMPClauseListINS_17OMPAllocateClauseEEEbPT_.exit: ; preds = %.lr.ph, %6, %2
  %.0 = phi i1 [ false, %2 ], [ true, %6 ], [ %12, %.lr.ph ]
  ret i1 %.0
}